; Function Attrs: mustprogress uwtable
define hidden void @_ZN4cvc58internal6theory11quantifiers21QuantifiersPreprocessC2ERNS0_3EnvE(ptr noundef nonnull align 8 dereferenceable(96) %0, ptr noundef nonnull align 8 dereferenceable(696) %1) unnamed_addr #3 align 2 personality ptr @__gxx_personality_v0 {
  tail call void @_ZN4cvc58internal6EnvObjC2ERNS0_3EnvE(ptr noundef nonnull align 8 dereferenceable(16) %0, ptr noundef nonnull align 8 dereferenceable(696) %1)
  store ptr getelementptr inbounds nuw inrange(-16, 16) (i8, ptr @_ZTVN4cvc58internal6theory11quantifiers21QuantifiersPreprocessE, i64 16), ptr %0, align 8, !tbaa !3
  %3 = getelementptr inbounds nuw i8, ptr %0, i64 16
  %4 = tail call noundef ptr @_ZNK4cvc58internal6EnvObj11nodeManagerEv(ptr noundef nonnull align 8 dereferenceable(16) %0)
  %5 = tail call noundef ptr @_ZN4cvc58internal3Env11getRewriterEv(ptr noundef nonnull align 8 dereferenceable(696) %1)
  %6 = tail call noundef nonnull align 8 dereferenceable(408) ptr @_ZNK4cvc58internal6EnvObj7optionsEv(ptr noundef nonnull align 8 dereferenceable(16) %0)
  tail call void @_ZN4cvc58internal6theory11quantifiers19QuantifiersRewriterC1EPNS0_11NodeManagerEPNS1_8RewriterERKNS0_7OptionsE(ptr noundef nonnull align 8 dereferenceable(80) %3, ptr noundef %4, ptr noundef %5, ptr noundef nonnull align 8 dereferenceable(408) %6)
  ret void
}